; ModuleID = '58/727.c'
source_filename = "58/727.c"
target datalayout = "e-m:e-p270:32:32-p271:32:32-p272:64:64-i64:64-f80:128-n8:16:32:64-S128"
target triple = "x86_64-pc-linux-gnu"

@.str = private unnamed_addr constant [3 x i8] c"%d\00", align 1
@.str.1 = private unnamed_addr constant [4 x i8] c"%d\0A\00", align 1

; Function Attrs: noinline nounwind uwtable
define dso_local i32 @main() #0 {
  %1 = alloca i32, align 4
  %2 = alloca [100 x i32], align 16
  %3 = alloca i32, align 4
  %4 = alloca i32, align 4
  %5 = alloca i32, align 4
  %6 = alloca [100 x i8], align 16
  %7 = alloca [100 x i8], align 16
  %8 = alloca i32, align 4
  %9 = alloca i32, align 4
  %10 = alloca i32, align 4
  store i32 0, i32* %1, align 4
  store i32 1, i32* %3, align 4
  %11 = call i32 (i8*, ...) @__isoc99_scanf(i8* getelementptr inbounds ([3 x i8], [3 x i8]* @.str, i64 0, i64 0), i32* %4)
  %12 = getelementptr inbounds [100 x i8], [100 x i8]* %6, i64 0, i64 0
  %13 = call i32 (i8*, ...) bitcast (i32 (...)* @gets to i32 (i8*, ...)*)(i8* %12)
  br label %14

14:                                               ; preds = %157, %0
  %15 = getelementptr inbounds [100 x i8], [100 x i8]* %7, i64 0, i64 0
  %16 = call i32 (i8*, ...) bitcast (i32 (...)* @gets to i32 (i8*, ...)*)(i8* %15)
  %17 = getelementptr inbounds [100 x i8], [100 x i8]* %7, i64 0, i64 0
  %18 = call i64 @strlen(i8* %17) #3
  %19 = trunc i64 %18 to i32
  store i32 %19, i32* %5, align 4
  store i32 0, i32* %8, align 4
  store i32 0, i32* %9, align 4
  br label %20

20:                                               ; preds = %90, %14
  %21 = load i32, i32* %8, align 4
  %22 = sext i32 %21 to i64
  %23 = getelementptr inbounds [100 x i8], [100 x i8]* %7, i64 0, i64 %22
  %24 = load i8, i8* %23, align 1
  %25 = sext i8 %24 to i32
  %26 = icmp eq i32 %25, 95
  br i1 %26, label %27, label %30

27:                                               ; preds = %20
  %28 = load i32, i32* %8, align 4
  %29 = add nsw i32 %28, 1
  store i32 %29, i32* %8, align 4
  br label %89

30:                                               ; preds = %20
  %31 = load i32, i32* %8, align 4
  %32 = sext i32 %31 to i64
  %33 = getelementptr inbounds [100 x i8], [100 x i8]* %7, i64 0, i64 %32
  %34 = load i8, i8* %33, align 1
  %35 = sext i8 %34 to i32
  %36 = icmp sge i32 %35, 65
  br i1 %36, label %37, label %47

37:                                               ; preds = %30
  %38 = load i32, i32* %8, align 4
  %39 = sext i32 %38 to i64
  %40 = getelementptr inbounds [100 x i8], [100 x i8]* %7, i64 0, i64 %39
  %41 = load i8, i8* %40, align 1
  %42 = sext i8 %41 to i32
  %43 = icmp sle i32 %42, 90
  br i1 %43, label %44, label %47

44:                                               ; preds = %37
  %45 = load i32, i32* %8, align 4
  %46 = add nsw i32 %45, 1
  store i32 %46, i32* %8, align 4
  br label %88

47:                                               ; preds = %37, %30
  %48 = load i32, i32* %8, align 4
  %49 = sext i32 %48 to i64
  %50 = getelementptr inbounds [100 x i8], [100 x i8]* %7, i64 0, i64 %49
  %51 = load i8, i8* %50, align 1
  %52 = sext i8 %51 to i32
  %53 = icmp sge i32 %52, 97
  br i1 %53, label %54, label %64

54:                                               ; preds = %47
  %55 = load i32, i32* %8, align 4
  %56 = sext i32 %55 to i64
  %57 = getelementptr inbounds [100 x i8], [100 x i8]* %7, i64 0, i64 %56
  %58 = load i8, i8* %57, align 1
  %59 = sext i8 %58 to i32
  %60 = icmp sle i32 %59, 122
  br i1 %60, label %61, label %64

61:                                               ; preds = %54
  %62 = load i32, i32* %8, align 4
  %63 = add nsw i32 %62, 1
  store i32 %63, i32* %8, align 4
  br label %87

64:                                               ; preds = %54, %47
  %65 = load i32, i32* %8, align 4
  %66 = sext i32 %65 to i64
  %67 = getelementptr inbounds [100 x i8], [100 x i8]* %7, i64 0, i64 %66
  %68 = load i8, i8* %67, align 1
  %69 = sext i8 %68 to i32
  %70 = icmp sge i32 %69, 48
  br i1 %70, label %71, label %81

71:                                               ; preds = %64
  %72 = load i32, i32* %8, align 4
  %73 = sext i32 %72 to i64
  %74 = getelementptr inbounds [100 x i8], [100 x i8]* %7, i64 0, i64 %73
  %75 = load i8, i8* %74, align 1
  %76 = sext i8 %75 to i32
  %77 = icmp sle i32 %76, 57
  br i1 %77, label %78, label %81

78:                                               ; preds = %71
  %79 = load i32, i32* %8, align 4
  %80 = add nsw i32 %79, 1
  store i32 %80, i32* %8, align 4
  br label %86

81:                                               ; preds = %71, %64
  %82 = load i32, i32* %8, align 4
  %83 = add nsw i32 %82, 1
  store i32 %83, i32* %8, align 4
  %84 = load i32, i32* %9, align 4
  %85 = add nsw i32 %84, 1
  store i32 %85, i32* %9, align 4
  br label %86

86:                                               ; preds = %81, %78
  br label %87

87:                                               ; preds = %86, %61
  br label %88

88:                                               ; preds = %87, %44
  br label %89

89:                                               ; preds = %88, %27
  br label %90

90:                                               ; preds = %89
  %91 = load i32, i32* %8, align 4
  %92 = load i32, i32* %5, align 4
  %93 = sub nsw i32 %92, 1
  %94 = icmp sle i32 %91, %93
  br i1 %94, label %20, label %95

95:                                               ; preds = %90
  %96 = load i32, i32* %9, align 4
  %97 = icmp eq i32 %96, 0
  br i1 %97, label %98, label %150

98:                                               ; preds = %95
  %99 = getelementptr inbounds [100 x i8], [100 x i8]* %7, i64 0, i64 0
  %100 = load i8, i8* %99, align 16
  %101 = sext i8 %100 to i32
  %102 = icmp eq i32 %101, 95
  br i1 %102, label %103, label %109

103:                                              ; preds = %98
  %104 = load i32, i32* %3, align 4
  %105 = sext i32 %104 to i64
  %106 = getelementptr inbounds [100 x i32], [100 x i32]* %2, i64 0, i64 %105
  store i32 1, i32* %106, align 4
  %107 = load i32, i32* %3, align 4
  %108 = add nsw i32 %107, 1
  store i32 %108, i32* %3, align 4
  br label %149

109:                                              ; preds = %98
  %110 = getelementptr inbounds [100 x i8], [100 x i8]* %7, i64 0, i64 0
  %111 = load i8, i8* %110, align 16
  %112 = sext i8 %111 to i32
  %113 = icmp sge i32 %112, 65
  br i1 %113, label %114, label %125

114:                                              ; preds = %109
  %115 = getelementptr inbounds [100 x i8], [100 x i8]* %7, i64 0, i64 0
  %116 = load i8, i8* %115, align 16
  %117 = sext i8 %116 to i32
  %118 = icmp sle i32 %117, 90
  br i1 %118, label %119, label %125

119:                                              ; preds = %114
  %120 = load i32, i32* %3, align 4
  %121 = sext i32 %120 to i64
  %122 = getelementptr inbounds [100 x i32], [100 x i32]* %2, i64 0, i64 %121
  store i32 1, i32* %122, align 4
  %123 = load i32, i32* %3, align 4
  %124 = add nsw i32 %123, 1
  store i32 %124, i32* %3, align 4
  br label %148

125:                                              ; preds = %114, %109
  %126 = getelementptr inbounds [100 x i8], [100 x i8]* %7, i64 0, i64 0
  %127 = load i8, i8* %126, align 16
  %128 = sext i8 %127 to i32
  %129 = icmp sge i32 %128, 97
  br i1 %129, label %130, label %141

130:                                              ; preds = %125
  %131 = getelementptr inbounds [100 x i8], [100 x i8]* %7, i64 0, i64 0
  %132 = load i8, i8* %131, align 16
  %133 = sext i8 %132 to i32
  %134 = icmp sle i32 %133, 122
  br i1 %134, label %135, label %141

135:                                              ; preds = %130
  %136 = load i32, i32* %3, align 4
  %137 = sext i32 %136 to i64
  %138 = getelementptr inbounds [100 x i32], [100 x i32]* %2, i64 0, i64 %137
  store i32 1, i32* %138, align 4
  %139 = load i32, i32* %3, align 4
  %140 = add nsw i32 %139, 1
  store i32 %140, i32* %3, align 4
  br label %147

141:                                              ; preds = %130, %125
  %142 = load i32, i32* %3, align 4
  %143 = sext i32 %142 to i64
  %144 = getelementptr inbounds [100 x i32], [100 x i32]* %2, i64 0, i64 %143
  store i32 0, i32* %144, align 4
  %145 = load i32, i32* %3, align 4
  %146 = add nsw i32 %145, 1
  store i32 %146, i32* %3, align 4
  br label %147

147:                                              ; preds = %141, %135
  br label %148

148:                                              ; preds = %147, %119
  br label %149

149:                                              ; preds = %148, %103
  br label %156

150:                                              ; preds = %95
  %151 = load i32, i32* %3, align 4
  %152 = sext i32 %151 to i64
  %153 = getelementptr inbounds [100 x i32], [100 x i32]* %2, i64 0, i64 %152
  store i32 0, i32* %153, align 4
  %154 = load i32, i32* %3, align 4
  %155 = add nsw i32 %154, 1
  store i32 %155, i32* %3, align 4
  br label %156

156:                                              ; preds = %150, %149
  br label %157

157:                                              ; preds = %156
  %158 = load i32, i32* %3, align 4
  %159 = load i32, i32* %4, align 4
  %160 = icmp sle i32 %158, %159
  br i1 %160, label %14, label %161

161:                                              ; preds = %157
  store i32 1, i32* %10, align 4
  br label %162

162:                                              ; preds = %170, %161
  %163 = load i32, i32* %10, align 4
  %164 = sext i32 %163 to i64
  %165 = getelementptr inbounds [100 x i32], [100 x i32]* %2, i64 0, i64 %164
  %166 = load i32, i32* %165, align 4
  %167 = call i32 (i8*, ...) @printf(i8* getelementptr inbounds ([4 x i8], [4 x i8]* @.str.1, i64 0, i64 0), i32 %166)
  %168 = load i32, i32* %10, align 4
  %169 = add nsw i32 %168, 1
  store i32 %169, i32* %10, align 4
  br label %170

170:                                              ; preds = %162
  %171 = load i32, i32* %10, align 4
  %172 = load i32, i32* %4, align 4
  %173 = icmp sle i32 %171, %172
  br i1 %173, label %162, label %174

174:                                              ; preds = %170
  %175 = call i32 (i8*, ...) @__isoc99_scanf(i8* getelementptr inbounds ([3 x i8], [3 x i8]* @.str, i64 0, i64 0), i32* %10)
  ret i32 0
}

declare dso_local i32 @__isoc99_scanf(i8*, ...) #1

declare dso_local i32 @gets(...) #1

; Function Attrs: nounwind readonly
declare dso_local i64 @strlen(i8*) #2

declare dso_local i32 @printf(i8*, ...) #1


!llvm.module.flags = !{!0}
!llvm.ident = !{!1}

!0 = !{i32 1, !"wchar_size", i32 4}
!1 = !{!"clang version 10.0.0-4ubuntu1 "}
